; Function Attrs: nounwind sspstrong uwtable
define internal fastcc void @test_check(i32 noundef range(i32 1, 3) %0, i32 noundef %1, ptr noundef %2) unnamed_addr #0 {
  %4 = alloca i64, align 8
  %5 = alloca ptr, align 8
  %6 = add nuw nsw i32 %0, 1
  %7 = icmp sle i32 %1, %0
  %8 = icmp samesign ugt i32 %1, %6
  %or.cond = select i1 %7, i1 true, i1 %8
  br i1 %or.cond, label %9, label %rb_check_arity.exit.preheader.preheader

rb_check_arity.exit.preheader.preheader:          ; preds = %3
  %wide.trip.count = zext nneg i32 %6 to i64
  br label %rb_check_arity.exit.preheader

9:                                                ; preds = %3
  tail call void @rb_error_arity(i32 noundef %1, i32 noundef range(i32 1, 4) %6, i32 noundef range(i32 -1, 4) %6) #24
  unreachable

rb_check_arity.exit.preheader:                    ; preds = %rb_check_arity.exit.preheader.preheader, %rb_check_arity.exit
  %indvars.iv = phi i64 [ 1, %rb_check_arity.exit.preheader.preheader ], [ %indvars.iv.next, %rb_check_arity.exit ]
  %10 = getelementptr i64, ptr %2, i64 %indvars.iv
  %11 = load i64, ptr %10, align 8, !tbaa !12
  %12 = icmp eq i64 %11, 0
  %13 = and i64 %11, 7
  %14 = icmp ne i64 %13, 0
  %15 = or i1 %12, %14
  br i1 %15, label %.thread, label %rbimpl_RB_TYPE_P_fastpath.exit

.thread:                                          ; preds = %rb_check_arity.exit.preheader
  call void @llvm.lifetime.start.p0(i64 8, ptr nonnull %4) #22
  br label %rbimpl_RB_TYPE_P_fastpath.exit.thread.i.i

rbimpl_RB_TYPE_P_fastpath.exit:                   ; preds = %rb_check_arity.exit.preheader
  %16 = inttoptr i64 %11 to ptr
  %17 = load i64, ptr %16, align 8, !tbaa !7
  %18 = and i64 %17, 31
  %19 = icmp eq i64 %18, 11
  br i1 %19, label %rb_check_arity.exit, label %rbimpl_RB_TYPE_P_fastpath.exit.i.i

rbimpl_RB_TYPE_P_fastpath.exit.i.i:               ; preds = %rbimpl_RB_TYPE_P_fastpath.exit
  call void @llvm.lifetime.start.p0(i64 8, ptr nonnull %4) #22
  %20 = icmp eq i64 %18, 5
  br i1 %20, label %rb_get_path.exit, label %rbimpl_RB_TYPE_P_fastpath.exit.thread.i.i

rbimpl_RB_TYPE_P_fastpath.exit.thread.i.i:        ; preds = %.thread, %rbimpl_RB_TYPE_P_fastpath.exit.i.i
  %.pr.i.i.i = load i64, ptr @rb_get_path_check_to_string.rbimpl_id, align 8, !tbaa !12
  %.not4.i.i.i = icmp eq i64 %.pr.i.i.i, 0
  br i1 %.not4.i.i.i, label %.lr.ph.i.i.i, label %rbimpl_intern_const.exit.i.i

.lr.ph.i.i.i:                                     ; preds = %rbimpl_RB_TYPE_P_fastpath.exit.thread.i.i, %.lr.ph.i.i.i
  %21 = call i64 @rb_intern2(ptr noundef nonnull @.str, i64 noundef 7) #22
  store i64 %21, ptr @rb_get_path_check_to_string.rbimpl_id, align 8, !tbaa !12
  %.not.i.i.i = icmp eq i64 %21, 0
  br i1 %.not.i.i.i, label %.lr.ph.i.i.i, label %rbimpl_intern_const.exit.i.i, !llvm.loop !13

rbimpl_intern_const.exit.i.i:                     ; preds = %.lr.ph.i.i.i, %rbimpl_RB_TYPE_P_fastpath.exit.thread.i.i
  %.lcssa.i.i.i = phi i64 [ %.pr.i.i.i, %rbimpl_RB_TYPE_P_fastpath.exit.thread.i.i ], [ %21, %.lr.ph.i.i.i ]
  %22 = call i64 @rb_check_funcall_default(i64 noundef %11, i64 noundef %.lcssa.i.i.i, i32 noundef 0, ptr noundef null, i64 noundef %11) #22
  store i64 %22, ptr %4, align 8, !tbaa !12
  %23 = call i64 @rb_string_value(ptr noundef nonnull %4) #22
  %24 = load i64, ptr %4, align 8, !tbaa !12
  br label %rb_get_path.exit

rb_get_path.exit:                                 ; preds = %rbimpl_RB_TYPE_P_fastpath.exit.i.i, %rbimpl_intern_const.exit.i.i
  %.0.i.i = phi i64 [ %24, %rbimpl_intern_const.exit.i.i ], [ %11, %rbimpl_RB_TYPE_P_fastpath.exit.i.i ]
  call void @llvm.lifetime.end.p0(i64 8, ptr nonnull %4) #22
  %25 = call i64 @rb_get_path_check_convert(i64 noundef %.0.i.i)
  call void @llvm.lifetime.start.p0(i64 8, ptr nonnull %5) #22
  store ptr %10, ptr %5, align 8, !tbaa !46
  call void asm sideeffect "", "*m,~{dirflag},~{fpsr},~{flags}"(ptr nonnull elementtype(ptr) %5) #22, !srcloc !350
  %26 = load ptr, ptr %5, align 8, !tbaa !46
  call void @llvm.lifetime.end.p0(i64 8, ptr nonnull %5) #22
  store volatile i64 %25, ptr %26, align 8, !tbaa !12
  br label %rb_check_arity.exit

rb_check_arity.exit:                              ; preds = %rbimpl_RB_TYPE_P_fastpath.exit, %rb_get_path.exit
  %indvars.iv.next = add nuw nsw i64 %indvars.iv, 1
  %exitcond.not = icmp eq i64 %indvars.iv.next, %wide.trip.count
  br i1 %exitcond.not, label %27, label %rb_check_arity.exit.preheader, !llvm.loop !351

27:                                               ; preds = %rb_check_arity.exit
  ret void
}